; Function Attrs: mustprogress uwtable
define void @_ZNK6icu_774IDNA17nameToUnicodeUTF8ENS_11StringPieceERNS_8ByteSinkERNS_8IDNAInfoER10UErrorCode(ptr noundef nonnull align 8 dereferenceable(8) %0, ptr %1, i32 %2, ptr noundef nonnull align 8 dereferenceable(8) %3, ptr noundef nonnull align 4 dereferenceable(11) %4, ptr noundef nonnull align 4 dereferenceable(4) %5) unnamed_addr #1 align 2 personality ptr @__gxx_personality_v0 {
  %7 = alloca %"class.icu_77::UnicodeString", align 8
  %8 = alloca %"class.icu_77::UnicodeString", align 8
  %9 = load i32, ptr %5, align 4, !tbaa !13
  %10 = icmp sgt i32 %9, 0
  br i1 %10, label %25, label %11

11:                                               ; preds = %6
  call void @llvm.lifetime.start.p0(i64 64, ptr nonnull %7) #17
  store ptr getelementptr inbounds nuw inrange(-16, 88) (i8, ptr @_ZTVN6icu_7713UnicodeStringE, i64 16), ptr %7, align 8, !tbaa !15
  %12 = getelementptr inbounds nuw i8, ptr %7, i64 8
  store i16 2, ptr %12, align 8, !tbaa !17
  call void @llvm.lifetime.start.p0(i64 64, ptr nonnull %8) #17
  invoke void @_ZN6icu_7713UnicodeString8fromUTF8ENS_11StringPieceE(ptr dead_on_unwind nonnull writable sret(%"class.icu_77::UnicodeString") align 8 %8, ptr %1, i32 %2)
          to label %13 unwind label %20

13:                                               ; preds = %11
  %14 = load ptr, ptr %0, align 8, !tbaa !15
  %15 = getelementptr inbounds nuw i8, ptr %14, i64 48
  %16 = load ptr, ptr %15, align 8
  %17 = invoke noundef nonnull align 8 dereferenceable(64) ptr %16(ptr noundef nonnull align 8 dereferenceable(8) %0, ptr noundef nonnull align 8 dereferenceable(64) %8, ptr noundef nonnull align 8 dereferenceable(64) %7, ptr noundef nonnull align 4 dereferenceable(11) %4, ptr noundef nonnull align 4 dereferenceable(4) %5)
          to label %18 unwind label %22

18:                                               ; preds = %13
  invoke void @_ZNK6icu_7713UnicodeString6toUTF8ERNS_8ByteSinkE(ptr noundef nonnull align 8 dereferenceable(64) %17, ptr noundef nonnull align 8 dereferenceable(8) %3)
          to label %19 unwind label %22

19:                                               ; preds = %18
  call void @_ZN6icu_7713UnicodeStringD1Ev(ptr noundef nonnull align 8 dereferenceable(64) %8) #17
  call void @llvm.lifetime.end.p0(i64 64, ptr nonnull %8) #17
  call void @_ZN6icu_7713UnicodeStringD1Ev(ptr noundef nonnull align 8 dereferenceable(64) %7) #17
  call void @llvm.lifetime.end.p0(i64 64, ptr nonnull %7) #17
  br label %25

20:                                               ; preds = %11
  %21 = landingpad { ptr, i32 }
          cleanup
  br label %24

22:                                               ; preds = %18, %13
  %23 = landingpad { ptr, i32 }
          cleanup
  call void @_ZN6icu_7713UnicodeStringD1Ev(ptr noundef nonnull align 8 dereferenceable(64) %8) #17
  br label %24

24:                                               ; preds = %22, %20
  %.pn = phi { ptr, i32 } [ %23, %22 ], [ %21, %20 ]
  call void @llvm.lifetime.end.p0(i64 64, ptr nonnull %8) #17
  call void @_ZN6icu_7713UnicodeStringD1Ev(ptr noundef nonnull align 8 dereferenceable(64) %7) #17
  call void @llvm.lifetime.end.p0(i64 64, ptr nonnull %7) #17
  resume { ptr, i32 } %.pn

25:                                               ; preds = %19, %6
  ret void
}